target datalayout = "e-m:e-p270:32:32-p271:32:32-p272:64:64-i64:64-i128:128-f80:128-n8:16:32:64-S128"
target triple = "x86_64-pc-linux-gnu"

%struct.Gia_Man_t_ = type { ptr, ptr, i32, i32, i32, i32, ptr, ptr, i32, i32, i32, ptr, ptr, %struct.Vec_Int_t_, %struct.Vec_Int_t_, i32, i32, i32, %struct.Vec_Int_t_, ptr, ptr, ptr, i32, i32, i32, i32, ptr, ptr, ptr, ptr, ptr, i32, i32, ptr, i32, ptr, ptr, ptr, ptr, ptr, ptr, ptr, ptr, ptr, ptr, ptr, ptr, ptr, ptr, ptr, ptr, ptr, ptr, %struct.Vec_Int_t_, %struct.Vec_Int_t_, ptr, ptr, ptr, ptr, ptr, ptr, ptr, ptr, ptr, ptr, ptr, ptr, ptr, ptr, ptr, ptr, ptr, ptr, ptr, ptr, ptr, i32, float, float, ptr, ptr, i32, ptr, ptr, ptr, ptr, ptr, ptr, ptr, ptr, ptr, ptr, ptr, ptr, ptr, ptr, ptr, i64, i64, ptr, ptr, i32, i32, i32, i32, i32, i32, i32, i32, i32, i32, i32, i32, ptr, ptr, ptr, ptr, ptr, ptr, ptr, ptr, i32, i32, i32, ptr, i32, i32, ptr, ptr, ptr, ptr, ptr, ptr, i32, i32, ptr, %struct.Vec_Int_t_, %struct.Vec_Int_t_, %struct.Vec_Int_t_, ptr, ptr, ptr, i32, i32, i32, i32, ptr, ptr, ptr, ptr, ptr }
%struct.Vec_Int_t_ = type { i32, i32, ptr }
%struct.Gia_Obj_t_ = type <{ i64, i32 }>

; Function Attrs: inlinehint nounwind uwtable
define internal i32 @Gia_ObjIsCo(ptr noundef %0) #4 {
  %2 = alloca ptr, align 8
  store ptr %0, ptr %2, align 8, !tbaa !32
  %3 = load ptr, ptr %2, align 8, !tbaa !32
  %4 = load i64, ptr %3, align 4
  %5 = lshr i64 %4, 31
  %6 = and i64 %5, 1
  %7 = trunc i64 %6 to i32
  %8 = icmp ne i32 %7, 0
  br i1 %8, label %9, label %15

9:                                                ; preds = %1
  %10 = load ptr, ptr %2, align 8, !tbaa !32
  %11 = load i64, ptr %10, align 4
  %12 = and i64 %11, 536870911
  %13 = trunc i64 %12 to i32
  %14 = icmp ne i32 %13, 536870911
  br label %15

15:                                               ; preds = %9, %1
  %16 = phi i1 [ false, %1 ], [ %14, %9 ]
  %17 = zext i1 %16 to i32
  ret i32 %17
}

; Function Attrs: inlinehint nounwind uwtable
define internal ptr @Gia_ObjFanin1(ptr noundef %0) #4 {
  %2 = alloca ptr, align 8
  store ptr %0, ptr %2, align 8, !tbaa !32
  %3 = load ptr, ptr %2, align 8, !tbaa !32
  %4 = load ptr, ptr %2, align 8, !tbaa !32
  %5 = load i64, ptr %4, align 4
  %6 = lshr i64 %5, 32
  %7 = and i64 %6, 536870911
  %8 = trunc i64 %7 to i32
  %9 = sext i32 %8 to i64
  %10 = sub i64 0, %9
  %11 = getelementptr inbounds %struct.Gia_Obj_t_, ptr %3, i64 %10
  ret ptr %11
}

; Function Attrs: inlinehint nounwind uwtable
define internal ptr @Gia_ObjFanin0(ptr noundef %0) #4 {
  %2 = alloca ptr, align 8
  store ptr %0, ptr %2, align 8, !tbaa !32
  %3 = load ptr, ptr %2, align 8, !tbaa !32
  %4 = load ptr, ptr %2, align 8, !tbaa !32
  %5 = load i64, ptr %4, align 4
  %6 = and i64 %5, 536870911
  %7 = trunc i64 %6 to i32
  %8 = sext i32 %7 to i64
  %9 = sub i64 0, %8
  %10 = getelementptr inbounds %struct.Gia_Obj_t_, ptr %3, i64 %9
  ret ptr %10
}

; Function Attrs: inlinehint nounwind uwtable
define internal i32 @Gia_ObjIsAnd(ptr noundef %0) #4 {
  %2 = alloca ptr, align 8
  store ptr %0, ptr %2, align 8, !tbaa !32
  %3 = load ptr, ptr %2, align 8, !tbaa !32
  %4 = load i64, ptr %3, align 4
  %5 = lshr i64 %4, 31
  %6 = and i64 %5, 1
  %7 = trunc i64 %6 to i32
  %8 = icmp ne i32 %7, 0
  br i1 %8, label %15, label %9

9:                                                ; preds = %1
  %10 = load ptr, ptr %2, align 8, !tbaa !32
  %11 = load i64, ptr %10, align 4
  %12 = and i64 %11, 536870911
  %13 = trunc i64 %12 to i32
  %14 = icmp ne i32 %13, 536870911
  br label %15

15:                                               ; preds = %9, %1
  %16 = phi i1 [ false, %1 ], [ %14, %9 ]
  %17 = zext i1 %16 to i32
  ret i32 %17
}

; Function Attrs: inlinehint nounwind uwtable
define internal ptr @Gia_ManObj(ptr noundef %0, i32 noundef %1) #4 {
  %3 = alloca ptr, align 8
  %4 = alloca i32, align 4
  store ptr %0, ptr %3, align 8, !tbaa !3
  store i32 %1, ptr %4, align 4, !tbaa !30
  %5 = load ptr, ptr %3, align 8, !tbaa !3
  %6 = getelementptr inbounds nuw %struct.Gia_Man_t_, ptr %5, i32 0, i32 6
  %7 = load ptr, ptr %6, align 8, !tbaa !37
  %8 = load i32, ptr %4, align 4, !tbaa !30
  %9 = sext i32 %8 to i64
  %10 = getelementptr inbounds %struct.Gia_Obj_t_, ptr %7, i64 %9
  ret ptr %10
}

; Function Attrs: nounwind uwtable
define i32 @Gia_ManCrossCutSimple(ptr noundef %0) #0 {
  %2 = alloca ptr, align 8
  %3 = alloca ptr, align 8
  %4 = alloca i32, align 4
  %5 = alloca i32, align 4
  %6 = alloca i32, align 4
  store ptr %0, ptr %2, align 8, !tbaa !3
  call void @llvm.lifetime.start.p0(i64 8, ptr %3) #11
  call void @llvm.lifetime.start.p0(i64 4, ptr %4) #11
  call void @llvm.lifetime.start.p0(i64 4, ptr %5) #11
  store i32 0, ptr %5, align 4, !tbaa !30
  call void @llvm.lifetime.start.p0(i64 4, ptr %6) #11
  store i32 0, ptr %6, align 4, !tbaa !30
  %7 = load ptr, ptr %2, align 8, !tbaa !3
  call void @Gia_ManCreateValueRefs(ptr noundef %7)
  store i32 0, ptr %4, align 4, !tbaa !30
  br label %8

8:                                                ; preds = %77, %1
  %9 = load i32, ptr %4, align 4, !tbaa !30
  %10 = load ptr, ptr %2, align 8, !tbaa !3
  %11 = getelementptr inbounds nuw %struct.Gia_Man_t_, ptr %10, i32 0, i32 4
  %12 = load i32, ptr %11, align 8, !tbaa !31
  %13 = icmp slt i32 %9, %12
  br i1 %13, label %14, label %19

14:                                               ; preds = %8
  %15 = load ptr, ptr %2, align 8, !tbaa !3
  %16 = load i32, ptr %4, align 4, !tbaa !30
  %17 = call ptr @Gia_ManObj(ptr noundef %15, i32 noundef %16)
  store ptr %17, ptr %3, align 8, !tbaa !32
  %18 = icmp ne ptr %17, null
  br label %19

19:                                               ; preds = %14, %8
  %20 = phi i1 [ false, %8 ], [ %18, %14 ]
  br i1 %20, label %21, label %80

21:                                               ; preds = %19
  %22 = load ptr, ptr %3, align 8, !tbaa !32
  %23 = getelementptr inbounds nuw %struct.Gia_Obj_t_, ptr %22, i32 0, i32 1
  %24 = load i32, ptr %23, align 4, !tbaa !33
  %25 = icmp ne i32 %24, 0
  br i1 %25, label %26, label %29

26:                                               ; preds = %21
  %27 = load i32, ptr %5, align 4, !tbaa !30
  %28 = add nsw i32 %27, 1
  store i32 %28, ptr %5, align 4, !tbaa !30
  br label %29

29:                                               ; preds = %26, %21
  %30 = load i32, ptr %6, align 4, !tbaa !30
  %31 = load i32, ptr %5, align 4, !tbaa !30
  %32 = icmp slt i32 %30, %31
  br i1 %32, label %33, label %35

33:                                               ; preds = %29
  %34 = load i32, ptr %5, align 4, !tbaa !30
  store i32 %34, ptr %6, align 4, !tbaa !30
  br label %35

35:                                               ; preds = %33, %29
  %36 = load ptr, ptr %3, align 8, !tbaa !32
  %37 = call i32 @Gia_ObjIsAnd(ptr noundef %36)
  %38 = icmp ne i32 %37, 0
  br i1 %38, label %39, label %60

39:                                               ; preds = %35
  %40 = load ptr, ptr %3, align 8, !tbaa !32
  %41 = call ptr @Gia_ObjFanin0(ptr noundef %40)
  %42 = getelementptr inbounds nuw %struct.Gia_Obj_t_, ptr %41, i32 0, i32 1
  %43 = load i32, ptr %42, align 4, !tbaa !33
  %44 = add i32 %43, -1
  store i32 %44, ptr %42, align 4, !tbaa !33
  %45 = icmp eq i32 %44, 0
  br i1 %45, label %46, label %49

46:                                               ; preds = %39
  %47 = load i32, ptr %5, align 4, !tbaa !30
  %48 = add nsw i32 %47, -1
  store i32 %48, ptr %5, align 4, !tbaa !30
  br label %49

49:                                               ; preds = %46, %39
  %50 = load ptr, ptr %3, align 8, !tbaa !32
  %51 = call ptr @Gia_ObjFanin1(ptr noundef %50)
  %52 = getelementptr inbounds nuw %struct.Gia_Obj_t_, ptr %51, i32 0, i32 1
  %53 = load i32, ptr %52, align 4, !tbaa !33
  %54 = add i32 %53, -1
  store i32 %54, ptr %52, align 4, !tbaa !33
  %55 = icmp eq i32 %54, 0
  br i1 %55, label %56, label %59

56:                                               ; preds = %49
  %57 = load i32, ptr %5, align 4, !tbaa !30
  %58 = add nsw i32 %57, -1
  store i32 %58, ptr %5, align 4, !tbaa !30
  br label %59

59:                                               ; preds = %56, %49
  br label %76

60:                                               ; preds = %35
  %61 = load ptr, ptr %3, align 8, !tbaa !32
  %62 = call i32 @Gia_ObjIsCo(ptr noundef %61)
  %63 = icmp ne i32 %62, 0
  br i1 %63, label %64, label %75

64:                                               ; preds = %60
  %65 = load ptr, ptr %3, align 8, !tbaa !32
  %66 = call ptr @Gia_ObjFanin0(ptr noundef %65)
  %67 = getelementptr inbounds nuw %struct.Gia_Obj_t_, ptr %66, i32 0, i32 1
  %68 = load i32, ptr %67, align 4, !tbaa !33
  %69 = add i32 %68, -1
  store i32 %69, ptr %67, align 4, !tbaa !33
  %70 = icmp eq i32 %69, 0
  br i1 %70, label %71, label %74

71:                                               ; preds = %64
  %72 = load i32, ptr %5, align 4, !tbaa !30
  %73 = add nsw i32 %72, -1
  store i32 %73, ptr %5, align 4, !tbaa !30
  br label %74

74:                                               ; preds = %71, %64
  br label %75

75:                                               ; preds = %74, %60
  br label %76

76:                                               ; preds = %75, %59
  br label %77

77:                                               ; preds = %76
  %78 = load i32, ptr %4, align 4, !tbaa !30
  %79 = add nsw i32 %78, 1
  store i32 %79, ptr %4, align 4, !tbaa !30
  br label %8, !llvm.loop !38

80:                                               ; preds = %19
  %81 = load i32, ptr %6, align 4, !tbaa !30
  call void @llvm.lifetime.end.p0(i64 4, ptr %6) #11
  call void @llvm.lifetime.end.p0(i64 4, ptr %5) #11
  call void @llvm.lifetime.end.p0(i64 4, ptr %4) #11
  call void @llvm.lifetime.end.p0(i64 8, ptr %3) #11
  ret i32 %81
}