; Function Attrs: nounwind uwtable
define range(i32 0, -2147483648) i32 @Gia_ManCrossCutSimple(ptr noundef %0) local_unnamed_addr #0 {
  tail call void @Gia_ManCreateValueRefs(ptr noundef %0) #16
  %2 = getelementptr inbounds nuw i8, ptr %0, i64 24
  %3 = load i32, ptr %2, align 8, !tbaa !28
  %4 = icmp sgt i32 %3, 0
  br i1 %4, label %.lr.ph, label %.critedge

.lr.ph:                                           ; preds = %1
  %5 = getelementptr i8, ptr %0, i64 32
  %.val = load ptr, ptr %5, align 8, !tbaa !29
  %.not = icmp eq ptr %.val, null
  br i1 %.not, label %.critedge, label %.lr.ph.split.preheader

.lr.ph.split.preheader:                           ; preds = %.lr.ph
  %wide.trip.count = zext nneg i32 %3 to i64
  br label %.lr.ph.split

.lr.ph.split:                                     ; preds = %.lr.ph.split.preheader, %29
  %indvars.iv = phi i64 [ 0, %.lr.ph.split.preheader ], [ %indvars.iv.next, %29 ]
  %.035 = phi i32 [ 0, %.lr.ph.split.preheader ], [ %.1, %29 ]
  %.01934 = phi i32 [ 0, %.lr.ph.split.preheader ], [ %.3, %29 ]
  %6 = getelementptr inbounds nuw %struct.Gia_Obj_t_, ptr %.val, i64 %indvars.iv
  %7 = getelementptr inbounds nuw i8, ptr %6, i64 8
  %8 = load i32, ptr %7, align 4, !tbaa !31
  %.not23 = icmp ne i32 %8, 0
  %9 = zext i1 %.not23 to i32
  %spec.select = add nsw i32 %.01934, %9
  %.1 = tail call i32 @llvm.smax.i32(i32 %.035, i32 %spec.select)
  %.val30 = load i64, ptr %6, align 4
  %10 = and i64 %.val30, 2147483648
  %.not.i = icmp eq i64 %10, 0
  %11 = and i64 %.val30, 536870911
  %12 = icmp ne i64 %11, 536870911
  %narrow.i = and i1 %.not.i, %12
  br i1 %narrow.i, label %13, label %22

13:                                               ; preds = %.lr.ph.split
  %14 = sub nsw i64 0, %11
  %15 = getelementptr inbounds %struct.Gia_Obj_t_, ptr %6, i64 %14, i32 1
  %16 = load i32, ptr %15, align 4, !tbaa !31
  %17 = add i32 %16, -1
  store i32 %17, ptr %15, align 4, !tbaa !31
  %18 = icmp eq i32 %17, 0
  %19 = sext i1 %18 to i32
  %spec.select26 = add nsw i32 %spec.select, %19
  %20 = lshr i64 %.val30, 32
  %21 = and i64 %20, 536870911
  br label %.sink.split

22:                                               ; preds = %.lr.ph.split
  %.not.i31 = icmp ne i64 %10, 0
  %narrow.i32 = and i1 %.not.i31, %12
  br i1 %narrow.i32, label %.sink.split, label %29

.sink.split:                                      ; preds = %22, %13
  %.sink = phi i64 [ %21, %13 ], [ %11, %22 ]
  %spec.select26.sink = phi i32 [ %spec.select26, %13 ], [ %spec.select, %22 ]
  %23 = sub nsw i64 0, %.sink
  %24 = getelementptr inbounds %struct.Gia_Obj_t_, ptr %6, i64 %23, i32 1
  %25 = load i32, ptr %24, align 4, !tbaa !31
  %26 = add i32 %25, -1
  store i32 %26, ptr %24, align 4, !tbaa !31
  %27 = icmp eq i32 %26, 0
  %28 = sext i1 %27 to i32
  %spec.select28 = add nsw i32 %spec.select26.sink, %28
  br label %29

29:                                               ; preds = %.sink.split, %22
  %.3 = phi i32 [ %spec.select, %22 ], [ %spec.select28, %.sink.split ]
  %indvars.iv.next = add nuw nsw i64 %indvars.iv, 1
  %exitcond.not = icmp eq i64 %indvars.iv.next, %wide.trip.count
  br i1 %exitcond.not, label %.critedge, label %.lr.ph.split, !llvm.loop !35

.critedge:                                        ; preds = %29, %.lr.ph, %1
  %.0.lcssa = phi i32 [ 0, %1 ], [ 0, %.lr.ph ], [ %.1, %29 ]
  ret i32 %.0.lcssa
}